; Function Attrs: nounwind uwtable
define hidden void @zim_SplPriorityQueue_current(ptr nocapture noundef readonly %0, ptr noundef %1) #0 {
  %3 = getelementptr inbounds i8, ptr %0, i64 32
  %4 = load ptr, ptr %3, align 8
  %5 = getelementptr inbounds i8, ptr %0, i64 44
  %6 = load i32, ptr %5, align 4
  %.not = icmp eq i32 %6, 0
  br i1 %.not, label %.critedge, label %7

7:                                                ; preds = %2
  tail call void @zend_wrong_parameters_none_error() #14
  %8 = load ptr, ptr getelementptr inbounds (%struct._zend_executor_globals, ptr @executor_globals, i64 0, i32 50), align 8
  %9 = icmp ne ptr %8, null
  tail call void @llvm.assume(i1 %9)
  br label %20

.critedge:                                        ; preds = %2
  %10 = getelementptr inbounds i8, ptr %4, i64 -32
  %11 = load ptr, ptr %10, align 8
  %12 = getelementptr inbounds i8, ptr %11, i64 32
  %13 = load i32, ptr %12, align 8
  %.not10 = icmp eq i32 %13, 0
  br i1 %.not10, label %14, label %16

14:                                               ; preds = %.critedge
  %15 = getelementptr inbounds i8, ptr %1, i64 8
  store i32 1, ptr %15, align 8
  br label %20

16:                                               ; preds = %.critedge
  %17 = load ptr, ptr %11, align 8
  %18 = getelementptr inbounds i8, ptr %4, i64 -24
  %19 = load i32, ptr %18, align 8
  tail call fastcc void @spl_pqueue_extract_helper(ptr noundef %1, ptr noundef %17, i32 noundef %19)
  br label %20

20:                                               ; preds = %16, %14, %7
  ret void
}